; ModuleID = '52/1289.c'
source_filename = "52/1289.c"
target datalayout = "e-m:e-p270:32:32-p271:32:32-p272:64:64-i64:64-f80:128-n8:16:32:64-S128"
target triple = "x86_64-pc-linux-gnu"

@.str = private unnamed_addr constant [6 x i8] c"%d %d\00", align 1
@.str.1 = private unnamed_addr constant [18 x i8] c"No space avaible!\00", align 1
@.str.2 = private unnamed_addr constant [3 x i8] c"%d\00", align 1
@.str.3 = private unnamed_addr constant [4 x i8] c"%d \00", align 1

; Function Attrs: noinline nounwind uwtable
define dso_local void @main() #0 {
  %1 = alloca i32, align 4
  %2 = alloca i32, align 4
  %3 = alloca i32, align 4
  %4 = alloca i32, align 4
  %5 = alloca i32*, align 8
  %6 = alloca i32*, align 8
  %7 = call i32 (i8*, ...) @__isoc99_scanf(i8* getelementptr inbounds ([6 x i8], [6 x i8]* @.str, i64 0, i64 0), i32* %1, i32* %2)
  %8 = load i32, i32* %1, align 4
  %9 = mul nsw i32 2, %8
  %10 = load i32, i32* %2, align 4
  %11 = sub nsw i32 %9, %10
  %12 = sext i32 %11 to i64
  %13 = mul i64 %12, 4
  %14 = call noalias i8* @malloc(i64 %13) #3
  %15 = bitcast i8* %14 to i32*
  store i32* %15, i32** %6, align 8
  %16 = icmp eq i32* %15, null
  br i1 %16, label %17, label %19

17:                                               ; preds = %0
  %18 = call i32 (i8*, ...) @printf(i8* getelementptr inbounds ([18 x i8], [18 x i8]* @.str.1, i64 0, i64 0))
  br label %19

19:                                               ; preds = %17, %0
  %20 = load i32*, i32** %6, align 8
  store i32* %20, i32** %5, align 8
  br label %21

21:                                               ; preds = %31, %19
  %22 = load i32*, i32** %5, align 8
  %23 = load i32*, i32** %6, align 8
  %24 = load i32, i32* %1, align 4
  %25 = sext i32 %24 to i64
  %26 = getelementptr inbounds i32, i32* %23, i64 %25
  %27 = icmp ult i32* %22, %26
  br i1 %27, label %28, label %34

28:                                               ; preds = %21
  %29 = load i32*, i32** %5, align 8
  %30 = call i32 (i8*, ...) @__isoc99_scanf(i8* getelementptr inbounds ([3 x i8], [3 x i8]* @.str.2, i64 0, i64 0), i32* %29)
  br label %31

31:                                               ; preds = %28
  %32 = load i32*, i32** %5, align 8
  %33 = getelementptr inbounds i32, i32* %32, i32 1
  store i32* %33, i32** %5, align 8
  br label %21

34:                                               ; preds = %21
  store i32 0, i32* %4, align 4
  br label %35

35:                                               ; preds = %53, %34
  %36 = load i32, i32* %4, align 4
  %37 = load i32, i32* %1, align 4
  %38 = load i32, i32* %2, align 4
  %39 = sub nsw i32 %37, %38
  %40 = icmp slt i32 %36, %39
  br i1 %40, label %41, label %56

41:                                               ; preds = %35
  %42 = load i32*, i32** %6, align 8
  %43 = load i32, i32* %4, align 4
  %44 = sext i32 %43 to i64
  %45 = getelementptr inbounds i32, i32* %42, i64 %44
  %46 = load i32, i32* %45, align 4
  %47 = load i32*, i32** %6, align 8
  %48 = load i32, i32* %1, align 4
  %49 = load i32, i32* %4, align 4
  %50 = add nsw i32 %48, %49
  %51 = sext i32 %50 to i64
  %52 = getelementptr inbounds i32, i32* %47, i64 %51
  store i32 %46, i32* %52, align 4
  br label %53

53:                                               ; preds = %41
  %54 = load i32, i32* %4, align 4
  %55 = add nsw i32 %54, 1
  store i32 %55, i32* %4, align 4
  br label %35

56:                                               ; preds = %35
  %57 = load i32*, i32** %6, align 8
  %58 = load i32, i32* %1, align 4
  %59 = sext i32 %58 to i64
  %60 = getelementptr inbounds i32, i32* %57, i64 %59
  %61 = load i32, i32* %2, align 4
  %62 = sext i32 %61 to i64
  %63 = sub i64 0, %62
  %64 = getelementptr inbounds i32, i32* %60, i64 %63
  store i32* %64, i32** %5, align 8
  br label %65

65:                                               ; preds = %80, %56
  %66 = load i32*, i32** %5, align 8
  %67 = load i32*, i32** %6, align 8
  %68 = load i32, i32* %1, align 4
  %69 = mul nsw i32 2, %68
  %70 = load i32, i32* %2, align 4
  %71 = sub nsw i32 %69, %70
  %72 = sub nsw i32 %71, 1
  %73 = sext i32 %72 to i64
  %74 = getelementptr inbounds i32, i32* %67, i64 %73
  %75 = icmp ult i32* %66, %74
  br i1 %75, label %76, label %83

76:                                               ; preds = %65
  %77 = load i32*, i32** %5, align 8
  %78 = load i32, i32* %77, align 4
  %79 = call i32 (i8*, ...) @printf(i8* getelementptr inbounds ([4 x i8], [4 x i8]* @.str.3, i64 0, i64 0), i32 %78)
  br label %80

80:                                               ; preds = %76
  %81 = load i32*, i32** %5, align 8
  %82 = getelementptr inbounds i32, i32* %81, i32 1
  store i32* %82, i32** %5, align 8
  br label %65

83:                                               ; preds = %65
  %84 = load i32*, i32** %5, align 8
  %85 = load i32, i32* %84, align 4
  %86 = call i32 (i8*, ...) @printf(i8* getelementptr inbounds ([3 x i8], [3 x i8]* @.str.2, i64 0, i64 0), i32 %85)
  ret void
}

declare dso_local i32 @__isoc99_scanf(i8*, ...) #1

; Function Attrs: nounwind
declare dso_local noalias i8* @malloc(i64) #2

declare dso_local i32 @printf(i8*, ...) #1


!llvm.module.flags = !{!0}
!llvm.ident = !{!1}

!0 = !{i32 1, !"wchar_size", i32 4}
!1 = !{!"clang version 10.0.0-4ubuntu1 "}
